; Function Attrs: mustprogress nounwind uwtable
define hidden noundef ptr @_ZN8Runtime113generate_blobEP10BufferBlobiPKcbP27StubAssemblerCodeGenClosure(ptr noundef %0, i32 noundef %1, ptr noundef %2, i1 zeroext %3, ptr noundef %4) local_unnamed_addr #0 align 2 {
  %6 = alloca %class.CodeBuffer, align 8
  %7 = tail call align 8 ptr @llvm.threadlocal.address.p0(ptr align 8 @_ZN6Thread12_thr_currentE)
  %8 = load ptr, ptr %7, align 8
  %9 = getelementptr inbounds i8, ptr %8, i64 800
  %10 = load ptr, ptr %9, align 8
  %11 = getelementptr inbounds i8, ptr %10, i64 24
  %12 = load ptr, ptr %11, align 8
  %13 = getelementptr inbounds i8, ptr %10, i64 32
  %14 = load ptr, ptr %13, align 8
  %15 = getelementptr inbounds i8, ptr %10, i64 40
  %16 = load ptr, ptr %15, align 8
  %17 = getelementptr inbounds i8, ptr %10, i64 8
  %18 = load i64, ptr %17, align 8
  call void @_ZN10CodeBufferC1EP8CodeBlob(ptr noundef nonnull align 8 dereferenceable(448) %6, ptr noundef %0) #14
  %19 = call noundef zeroext i1 @_ZN11Compilation17setup_code_bufferEP10CodeBufferi(ptr noundef nonnull %6, i32 noundef 0) #14
  %20 = call noundef ptr @_Z23resource_allocate_bytesmN17AllocFailStrategy13AllocFailEnumE(i64 noundef 72, i32 noundef 0) #14
  call void @_ZN17AbstractAssemblerC2EP10CodeBuffer(ptr noundef nonnull align 8 dereferenceable(24) %20, ptr noundef nonnull %6) #14
  store ptr getelementptr inbounds inrange(-16, 8) (i8, ptr @_ZTV9Assembler, i64 16), ptr %20, align 8
  call void @_ZN9Assembler15init_attributesEv(ptr noundef nonnull align 8 dereferenceable(40) %20) #14
  %21 = getelementptr inbounds i8, ptr %20, i64 40
  store i32 0, ptr %21, align 8
  store ptr getelementptr inbounds inrange(-16, 40) (i8, ptr @_ZTV13StubAssembler, i64 16), ptr %20, align 8
  %22 = getelementptr inbounds i8, ptr %20, i64 48
  store ptr %2, ptr %22, align 8
  %23 = getelementptr inbounds i8, ptr %20, i64 56
  store i8 0, ptr %23, align 8
  %24 = getelementptr inbounds i8, ptr %20, i64 60
  store i32 -1, ptr %24, align 4
  %25 = getelementptr inbounds i8, ptr %20, i64 64
  store i32 0, ptr %25, align 8
  %26 = getelementptr inbounds i8, ptr %20, i64 68
  store i32 %1, ptr %26, align 4
  %27 = load ptr, ptr %4, align 8
  %28 = load ptr, ptr %27, align 8
  %29 = call noundef ptr %28(ptr noundef nonnull align 8 dereferenceable(8) %4, ptr noundef nonnull %20) #14
  call void @_ZN14MacroAssembler5alignEj(ptr noundef nonnull align 8 dereferenceable(40) %20, i32 noundef 8) #14
  call void @_ZN17AbstractAssembler5flushEv(ptr noundef nonnull align 8 dereferenceable(24) %20) #14
  %30 = load i32, ptr %24, align 4
  %31 = load i8, ptr %23, align 8
  %32 = trunc i8 %31 to i1
  %33 = call noundef ptr @_ZN11RuntimeStub16new_runtime_stubEPKcP10CodeBuffersiP9OopMapSetbb(ptr noundef %2, ptr noundef nonnull %6, i16 noundef signext -1, i32 noundef %30, ptr noundef %29, i1 noundef zeroext %32, i1 noundef zeroext true) #14
  call void @_ZN10CodeBufferD1Ev(ptr noundef nonnull align 8 dereferenceable(448) %6) #14
  %34 = load ptr, ptr %12, align 8
  %.not.i.i.i.i = icmp eq ptr %34, null
  br i1 %.not.i.i.i.i, label %36, label %35

35:                                               ; preds = %5
  call void @_ZN5Arena17set_size_in_bytesEm(ptr noundef nonnull align 8 dereferenceable(48) %10, i64 noundef %18) #14
  call void @_ZN5Chunk9next_chopEPS_(ptr noundef nonnull %12) #14
  br label %36

36:                                               ; preds = %35, %5
  %37 = load ptr, ptr %13, align 8
  %.not8.i.i.i.i = icmp eq ptr %37, %14
  br i1 %.not8.i.i.i.i, label %_ZN12ResourceMarkD2Ev.exit, label %38

38:                                               ; preds = %36
  store ptr %12, ptr %11, align 8
  store ptr %14, ptr %13, align 8
  store ptr %16, ptr %15, align 8
  br label %_ZN12ResourceMarkD2Ev.exit

_ZN12ResourceMarkD2Ev.exit:                       ; preds = %36, %38
  ret ptr %33
}